target datalayout = "e-m:e-p270:32:32-p271:32:32-p272:64:64-i64:64-i128:128-f80:128-n8:16:32:64-S128"
target triple = "x86_64-unknown-linux-gnu"

%struct.ecc_set_type = type { i32, i32, ptr, ptr, ptr, ptr, ptr, ptr, ptr, ptr, i32, i32, i32 }
%struct.ecc_key = type { i32, i32, i32, i32, ptr, ptr, %struct.ecc_point, [1 x %struct.sp_int], ptr }
%struct.ecc_point = type { [1 x %struct.sp_int], [1 x %struct.sp_int], [1 x %struct.sp_int] }
%struct.sp_int = type { i32, i32, [129 x i64] }

; Function Attrs: nounwind uwtable
define i32 @wc_ecc_is_valid_idx(i32 noundef %n) #0 {
entry:
  %retval = alloca i32, align 4
  %n.addr = alloca i32, align 4
  %x = alloca i32, align 4
  store i32 %n, ptr %n.addr, align 4
  %0 = load i32, ptr %n.addr, align 4
  %cmp = icmp sge i32 %0, 6
  br i1 %cmp, label %if.then, label %if.end

if.then:                                          ; preds = %entry
  store i32 0, ptr %retval, align 4
  br label %return

if.end:                                           ; preds = %entry
  store i32 0, ptr %x, align 4
  br label %for.cond

for.cond:                                         ; preds = %for.inc, %if.end
  %1 = load i32, ptr %x, align 4
  %idxprom = sext i32 %1 to i64
  %arrayidx = getelementptr inbounds [6 x %struct.ecc_set_type], ptr @ecc_sets, i64 0, i64 %idxprom
  %size = getelementptr inbounds %struct.ecc_set_type, ptr %arrayidx, i32 0, i32 0
  %2 = load i32, ptr %size, align 8
  %cmp1 = icmp ne i32 %2, 0
  br i1 %cmp1, label %for.body, label %for.end

for.body:                                         ; preds = %for.cond
  br label %for.inc

for.inc:                                          ; preds = %for.body
  %3 = load i32, ptr %x, align 4
  %inc = add nsw i32 %3, 1
  store i32 %inc, ptr %x, align 4
  br label %for.cond, !llvm.loop !12

for.end:                                          ; preds = %for.cond
  %4 = load i32, ptr %n.addr, align 4
  %cmp2 = icmp sge i32 %4, -1
  br i1 %cmp2, label %land.lhs.true, label %if.end5

land.lhs.true:                                    ; preds = %for.end
  %5 = load i32, ptr %n.addr, align 4
  %6 = load i32, ptr %x, align 4
  %cmp3 = icmp slt i32 %5, %6
  br i1 %cmp3, label %if.then4, label %if.end5

if.then4:                                         ; preds = %land.lhs.true
  store i32 1, ptr %retval, align 4
  br label %return

if.end5:                                          ; preds = %land.lhs.true, %for.end
  store i32 0, ptr %retval, align 4
  br label %return

return:                                           ; preds = %if.end5, %if.then4, %if.then
  %7 = load i32, ptr %retval, align 4
  ret i32 %7
}

; Function Attrs: nounwind uwtable
define i32 @wc_ecc_shared_secret_ex(ptr noundef %private_key, ptr noundef %point, ptr noundef %out, ptr noundef %outlen) #0 {
entry:
  %retval = alloca i32, align 4
  %private_key.addr = alloca ptr, align 8
  %point.addr = alloca ptr, align 8
  %out.addr = alloca ptr, align 8
  %outlen.addr = alloca ptr, align 8
  %err = alloca i32, align 4
  store ptr %private_key, ptr %private_key.addr, align 8
  store ptr %point, ptr %point.addr, align 8
  store ptr %out, ptr %out.addr, align 8
  store ptr %outlen, ptr %outlen.addr, align 8
  %0 = load ptr, ptr %private_key.addr, align 8
  %cmp = icmp eq ptr %0, null
  br i1 %cmp, label %if.then, label %lor.lhs.false

lor.lhs.false:                                    ; preds = %entry
  %1 = load ptr, ptr %point.addr, align 8
  %cmp1 = icmp eq ptr %1, null
  br i1 %cmp1, label %if.then, label %lor.lhs.false2

lor.lhs.false2:                                   ; preds = %lor.lhs.false
  %2 = load ptr, ptr %out.addr, align 8
  %cmp3 = icmp eq ptr %2, null
  br i1 %cmp3, label %if.then, label %lor.lhs.false4

lor.lhs.false4:                                   ; preds = %lor.lhs.false2
  %3 = load ptr, ptr %outlen.addr, align 8
  %cmp5 = icmp eq ptr %3, null
  br i1 %cmp5, label %if.then, label %if.end

if.then:                                          ; preds = %lor.lhs.false4, %lor.lhs.false2, %lor.lhs.false, %entry
  store i32 -173, ptr %retval, align 4
  br label %return

if.end:                                           ; preds = %lor.lhs.false4
  %4 = load ptr, ptr %private_key.addr, align 8
  %type = getelementptr inbounds %struct.ecc_key, ptr %4, i32 0, i32 0
  %5 = load i32, ptr %type, align 8
  %cmp6 = icmp ne i32 %5, 2
  br i1 %cmp6, label %land.lhs.true, label %if.end10

land.lhs.true:                                    ; preds = %if.end
  %6 = load ptr, ptr %private_key.addr, align 8
  %type7 = getelementptr inbounds %struct.ecc_key, ptr %6, i32 0, i32 0
  %7 = load i32, ptr %type7, align 8
  %cmp8 = icmp ne i32 %7, 3
  br i1 %cmp8, label %if.then9, label %if.end10

if.then9:                                         ; preds = %land.lhs.true
  br label %do.body

do.body:                                          ; preds = %if.then9
  br label %do.end

do.end:                                           ; preds = %do.body
  store i32 -170, ptr %retval, align 4
  br label %return

if.end10:                                         ; preds = %land.lhs.true, %if.end
  %8 = load ptr, ptr %private_key.addr, align 8
  %idx = getelementptr inbounds %struct.ecc_key, ptr %8, i32 0, i32 1
  %9 = load i32, ptr %idx, align 4
  %call = call i32 @wc_ecc_is_valid_idx(i32 noundef %9)
  %cmp11 = icmp eq i32 %call, 0
  br i1 %cmp11, label %if.then14, label %lor.lhs.false12

lor.lhs.false12:                                  ; preds = %if.end10
  %10 = load ptr, ptr %private_key.addr, align 8
  %dp = getelementptr inbounds %struct.ecc_key, ptr %10, i32 0, i32 4
  %11 = load ptr, ptr %dp, align 8
  %cmp13 = icmp eq ptr %11, null
  br i1 %cmp13, label %if.then14, label %if.end17

if.then14:                                        ; preds = %lor.lhs.false12, %if.end10
  br label %do.body15

do.body15:                                        ; preds = %if.then14
  br label %do.end16

do.end16:                                         ; preds = %do.body15
  store i32 -170, ptr %retval, align 4
  br label %return

if.end17:                                         ; preds = %lor.lhs.false12
  br label %do.body18

do.body18:                                        ; preds = %if.end17
  br label %do.end19

do.end19:                                         ; preds = %do.body18
  %12 = load ptr, ptr %private_key.addr, align 8
  %state = getelementptr inbounds %struct.ecc_key, ptr %12, i32 0, i32 2
  %13 = load i32, ptr %state, align 8
  switch i32 %13, label %sw.default [
    i32 0, label %sw.bb
    i32 1, label %sw.bb
    i32 2, label %sw.bb25
  ]

sw.bb:                                            ; preds = %do.end19, %do.end19
  %14 = load ptr, ptr %private_key.addr, align 8
  %state20 = getelementptr inbounds %struct.ecc_key, ptr %14, i32 0, i32 2
  store i32 1, ptr %state20, align 8
  %15 = load ptr, ptr %private_key.addr, align 8
  %16 = load ptr, ptr %point.addr, align 8
  %17 = load ptr, ptr %out.addr, align 8
  %18 = load ptr, ptr %outlen.addr, align 8
  %call21 = call i32 @wc_ecc_shared_secret_gen_sync(ptr noundef %15, ptr noundef %16, ptr noundef %17, ptr noundef %18)
  store i32 %call21, ptr %err, align 4
  %19 = load i32, ptr %err, align 4
  %cmp22 = icmp slt i32 %19, 0
  br i1 %cmp22, label %if.then23, label %if.end24

if.then23:                                        ; preds = %sw.bb
  br label %sw.epilog

if.end24:                                         ; preds = %sw.bb
  br label %sw.bb25

sw.bb25:                                          ; preds = %if.end24, %do.end19
  %20 = load ptr, ptr %private_key.addr, align 8
  %state26 = getelementptr inbounds %struct.ecc_key, ptr %20, i32 0, i32 2
  store i32 2, ptr %state26, align 8
  store i32 0, ptr %err, align 4
  br label %sw.epilog

sw.default:                                       ; preds = %do.end19
  store i32 -192, ptr %err, align 4
  br label %sw.epilog

sw.epilog:                                        ; preds = %sw.default, %sw.bb25, %if.then23
  br label %do.body27

do.body27:                                        ; preds = %sw.epilog
  br label %do.end28

do.end28:                                         ; preds = %do.body27
  %21 = load i32, ptr %err, align 4
  %cmp29 = icmp eq i32 %21, -108
  br i1 %cmp29, label %if.then30, label %if.end31

if.then30:                                        ; preds = %do.end28
  %22 = load i32, ptr %err, align 4
  store i32 %22, ptr %retval, align 4
  br label %return

if.end31:                                         ; preds = %do.end28
  %23 = load ptr, ptr %private_key.addr, align 8
  %state32 = getelementptr inbounds %struct.ecc_key, ptr %23, i32 0, i32 2
  store i32 0, ptr %state32, align 8
  %24 = load i32, ptr %err, align 4
  store i32 %24, ptr %retval, align 4
  br label %return

return:                                           ; preds = %if.end31, %if.then30, %do.end16, %do.end, %if.then
  %25 = load i32, ptr %retval, align 4
  ret i32 %25
}