; Function Attrs: nounwind uwtable
define range(i32 -2147483648, 1) i32 @wc_ecc_shared_secret_ex(ptr noundef %private_key, ptr noundef %point, ptr noundef %out, ptr noundef %outlen) local_unnamed_addr #2 {
entry:
  %cmp = icmp eq ptr %private_key, null
  %cmp1 = icmp eq ptr %point, null
  %or.cond = or i1 %cmp, %cmp1
  %cmp3 = icmp eq ptr %out, null
  %or.cond1 = or i1 %or.cond, %cmp3
  %cmp5 = icmp eq ptr %outlen, null
  %or.cond2 = or i1 %or.cond1, %cmp5
  br i1 %or.cond2, label %return, label %if.end

if.end:                                           ; preds = %entry
  %0 = load i32, ptr %private_key, align 8
  %1 = and i32 %0, -2
  %switch = icmp eq i32 %1, 2
  br i1 %switch, label %if.end10, label %return

if.end10:                                         ; preds = %if.end
  %idx = getelementptr inbounds nuw i8, ptr %private_key, i64 4
  %2 = load i32, ptr %idx, align 4
  %3 = add i32 %2, -5
  %narrow.i = icmp ult i32 %3, -6
  br i1 %narrow.i, label %return, label %lor.lhs.false12

lor.lhs.false12:                                  ; preds = %if.end10
  %dp = getelementptr inbounds nuw i8, ptr %private_key, i64 16
  %4 = load ptr, ptr %dp, align 8
  %cmp13 = icmp eq ptr %4, null
  br i1 %cmp13, label %return, label %do.end19

do.end19:                                         ; preds = %lor.lhs.false12
  %state = getelementptr inbounds nuw i8, ptr %private_key, i64 8
  %5 = load i32, ptr %state, align 8
  switch i32 %5, label %if.end31 [
    i32 0, label %sw.bb
    i32 1, label %sw.bb
    i32 2, label %sw.bb25
  ]

sw.bb:                                            ; preds = %do.end19, %do.end19
  store i32 1, ptr %state, align 8
  %call21 = tail call i32 @wc_ecc_shared_secret_gen_sync(ptr noundef nonnull %private_key, ptr noundef nonnull %point, ptr noundef nonnull %out, ptr noundef nonnull %outlen)
  %cmp22 = icmp slt i32 %call21, 0
  br i1 %cmp22, label %do.end28, label %sw.bb25

sw.bb25:                                          ; preds = %sw.bb, %do.end19
  br label %if.end31

do.end28:                                         ; preds = %sw.bb
  %cmp29 = icmp eq i32 %call21, -108
  br i1 %cmp29, label %return, label %if.end31

if.end31:                                         ; preds = %do.end19, %sw.bb25, %do.end28
  %err.020 = phi i32 [ %call21, %do.end28 ], [ -192, %do.end19 ], [ 0, %sw.bb25 ]
  store i32 0, ptr %state, align 8
  br label %return

return:                                           ; preds = %if.end, %do.end28, %if.end10, %lor.lhs.false12, %entry, %if.end31
  %retval.0 = phi i32 [ %err.020, %if.end31 ], [ -173, %entry ], [ -170, %if.end ], [ -170, %lor.lhs.false12 ], [ -170, %if.end10 ], [ -108, %do.end28 ]
  ret i32 %retval.0
}